target datalayout = "e-m:e-p270:32:32-p271:32:32-p272:64:64-i64:64-i128:128-f80:128-n8:16:32:64-S128"
target triple = "x86_64-pc-linux-gnu"

%union.SU = type { i32 }

@.str.4 = private unnamed_addr constant [29 x i8] c"../openssl/test/stack_test.c\00", align 1
@.str.8 = private unnamed_addr constant [2 x i8] c"i\00", align 1
@.str.10 = private unnamed_addr constant [2 x i8] c"n\00", align 1
@.str.12 = private unnamed_addr constant [6 x i8] c"v + i\00", align 1
@.str.60 = private unnamed_addr constant [13 x i8] c"sk_SU_num(s)\00", align 1
@.str.61 = private unnamed_addr constant [17 x i8] c"SU stack size %d\00", align 1
@.str.62 = private unnamed_addr constant [18 x i8] c"sk_SU_value(s, i)\00", align 1
@.str.63 = private unnamed_addr constant [20 x i8] c"SU pointer check %d\00", align 1

; Function Attrs: inlinehint nounwind uwtable
define internal void @sk_SU_free(ptr noundef %0) #3 {
  %2 = alloca ptr, align 8
  store ptr %0, ptr %2, align 8, !tbaa !42
  %3 = load ptr, ptr %2, align 8, !tbaa !42
  call void @OPENSSL_sk_free(ptr noundef %3)
  ret void
}

; Function Attrs: inlinehint nounwind uwtable
define internal ptr @sk_SU_value(ptr noundef %0, i32 noundef %1) #3 {
  %3 = alloca ptr, align 8
  %4 = alloca i32, align 4
  store ptr %0, ptr %3, align 8, !tbaa !42
  store i32 %1, ptr %4, align 4, !tbaa !4
  %5 = load ptr, ptr %3, align 8, !tbaa !42
  %6 = load i32, ptr %4, align 4, !tbaa !4
  %7 = call ptr @OPENSSL_sk_value(ptr noundef %5, i32 noundef %6)
  ret ptr %7
}

; Function Attrs: inlinehint nounwind uwtable
define internal i32 @sk_SU_push(ptr noundef %0, ptr noundef %1) #3 {
  %3 = alloca ptr, align 8
  %4 = alloca ptr, align 8
  store ptr %0, ptr %3, align 8, !tbaa !42
  store ptr %1, ptr %4, align 8, !tbaa !35
  %5 = load ptr, ptr %3, align 8, !tbaa !42
  %6 = load ptr, ptr %4, align 8, !tbaa !35
  %7 = call i32 @OPENSSL_sk_push(ptr noundef %5, ptr noundef %6)
  ret i32 %7
}

; Function Attrs: inlinehint nounwind uwtable
define internal i32 @sk_SU_num(ptr noundef %0) #3 {
  %2 = alloca ptr, align 8
  store ptr %0, ptr %2, align 8, !tbaa !42
  %3 = load ptr, ptr %2, align 8, !tbaa !42
  %4 = call i32 @OPENSSL_sk_num(ptr noundef %3)
  ret i32 %4
}

; Function Attrs: inlinehint nounwind uwtable
define internal ptr @sk_SU_new_null() #3 {
  %1 = call ptr @OPENSSL_sk_new_null()
  ret ptr %1
}

; Function Attrs: nounwind uwtable
define internal i32 @test_SU_stack() #0 {
  %1 = alloca ptr, align 8
  %2 = alloca [10 x %union.SU], align 16
  %3 = alloca i32, align 4
  %4 = alloca i32, align 4
  %5 = alloca i32, align 4
  call void @llvm.lifetime.start.p0(i64 8, ptr %1) #5
  %6 = call ptr @sk_SU_new_null()
  store ptr %6, ptr %1, align 8, !tbaa !42
  call void @llvm.lifetime.start.p0(i64 40, ptr %2) #5
  call void @llvm.lifetime.start.p0(i64 4, ptr %3) #5
  store i32 10, ptr %3, align 4, !tbaa !4
  call void @llvm.lifetime.start.p0(i64 4, ptr %4) #5
  call void @llvm.lifetime.start.p0(i64 4, ptr %5) #5
  store i32 0, ptr %5, align 4, !tbaa !4
  store i32 0, ptr %4, align 4, !tbaa !4
  br label %7

7:                                                ; preds = %41, %0
  %8 = load i32, ptr %4, align 4, !tbaa !4
  %9 = icmp slt i32 %8, 10
  br i1 %9, label %10, label %44

10:                                               ; preds = %7
  %11 = load i32, ptr %4, align 4, !tbaa !4
  %12 = and i32 %11, 1
  %13 = icmp eq i32 %12, 0
  br i1 %13, label %14, label %19

14:                                               ; preds = %10
  %15 = load i32, ptr %4, align 4, !tbaa !4
  %16 = load i32, ptr %4, align 4, !tbaa !4
  %17 = sext i32 %16 to i64
  %18 = getelementptr inbounds [10 x %union.SU], ptr %2, i64 0, i64 %17
  store i32 %15, ptr %18, align 4, !tbaa !44
  br label %26

19:                                               ; preds = %10
  %20 = load i32, ptr %4, align 4, !tbaa !4
  %21 = add nsw i32 65, %20
  %22 = trunc i32 %21 to i8
  %23 = load i32, ptr %4, align 4, !tbaa !4
  %24 = sext i32 %23 to i64
  %25 = getelementptr inbounds [10 x %union.SU], ptr %2, i64 0, i64 %24
  store i8 %22, ptr %25, align 4, !tbaa !44
  br label %26

26:                                               ; preds = %19, %14
  %27 = load ptr, ptr %1, align 8, !tbaa !42
  %28 = call i32 @sk_SU_num(ptr noundef %27)
  %29 = load i32, ptr %4, align 4, !tbaa !4
  %30 = call i32 @test_int_eq(ptr noundef @.str.4, i32 noundef 359, ptr noundef @.str.60, ptr noundef @.str.8, i32 noundef %28, i32 noundef %29)
  %31 = icmp ne i32 %30, 0
  br i1 %31, label %34, label %32

32:                                               ; preds = %26
  %33 = load i32, ptr %4, align 4, !tbaa !4
  call void (ptr, i32, ptr, ...) @test_info(ptr noundef @.str.4, i32 noundef 360, ptr noundef @.str.61, i32 noundef %33)
  br label %71

34:                                               ; preds = %26
  %35 = load ptr, ptr %1, align 8, !tbaa !42
  %36 = getelementptr inbounds [10 x %union.SU], ptr %2, i64 0, i64 0
  %37 = load i32, ptr %4, align 4, !tbaa !4
  %38 = sext i32 %37 to i64
  %39 = getelementptr inbounds %union.SU, ptr %36, i64 %38
  %40 = call i32 @sk_SU_push(ptr noundef %35, ptr noundef %39)
  br label %41

41:                                               ; preds = %34
  %42 = load i32, ptr %4, align 4, !tbaa !4
  %43 = add nsw i32 %42, 1
  store i32 %43, ptr %4, align 4, !tbaa !4
  br label %7, !llvm.loop !45

44:                                               ; preds = %7
  %45 = load ptr, ptr %1, align 8, !tbaa !42
  %46 = call i32 @sk_SU_num(ptr noundef %45)
  %47 = call i32 @test_int_eq(ptr noundef @.str.4, i32 noundef 365, ptr noundef @.str.60, ptr noundef @.str.10, i32 noundef %46, i32 noundef 10)
  %48 = icmp ne i32 %47, 0
  br i1 %48, label %50, label %49

49:                                               ; preds = %44
  br label %71

50:                                               ; preds = %44
  store i32 0, ptr %4, align 4, !tbaa !4
  br label %51

51:                                               ; preds = %67, %50
  %52 = load i32, ptr %4, align 4, !tbaa !4
  %53 = icmp slt i32 %52, 10
  br i1 %53, label %54, label %70

54:                                               ; preds = %51
  %55 = load ptr, ptr %1, align 8, !tbaa !42
  %56 = load i32, ptr %4, align 4, !tbaa !4
  %57 = call ptr @sk_SU_value(ptr noundef %55, i32 noundef %56)
  %58 = getelementptr inbounds [10 x %union.SU], ptr %2, i64 0, i64 0
  %59 = load i32, ptr %4, align 4, !tbaa !4
  %60 = sext i32 %59 to i64
  %61 = getelementptr inbounds %union.SU, ptr %58, i64 %60
  %62 = call i32 @test_ptr_eq(ptr noundef @.str.4, i32 noundef 370, ptr noundef @.str.62, ptr noundef @.str.12, ptr noundef %57, ptr noundef %61)
  %63 = icmp ne i32 %62, 0
  br i1 %63, label %66, label %64

64:                                               ; preds = %54
  %65 = load i32, ptr %4, align 4, !tbaa !4
  call void (ptr, i32, ptr, ...) @test_info(ptr noundef @.str.4, i32 noundef 371, ptr noundef @.str.63, i32 noundef %65)
  br label %71

66:                                               ; preds = %54
  br label %67

67:                                               ; preds = %66
  %68 = load i32, ptr %4, align 4, !tbaa !4
  %69 = add nsw i32 %68, 1
  store i32 %69, ptr %4, align 4, !tbaa !4
  br label %51, !llvm.loop !46

70:                                               ; preds = %51
  store i32 1, ptr %5, align 4, !tbaa !4
  br label %71

71:                                               ; preds = %70, %64, %49, %32
  %72 = load ptr, ptr %1, align 8, !tbaa !42
  call void @sk_SU_free(ptr noundef %72)
  %73 = load i32, ptr %5, align 4, !tbaa !4
  call void @llvm.lifetime.end.p0(i64 4, ptr %5) #5
  call void @llvm.lifetime.end.p0(i64 4, ptr %4) #5
  call void @llvm.lifetime.end.p0(i64 4, ptr %3) #5
  call void @llvm.lifetime.end.p0(i64 40, ptr %2) #5
  call void @llvm.lifetime.end.p0(i64 8, ptr %1) #5
  ret i32 %73
}