; Function Attrs: nounwind uwtable
define internal range(i32 0, 2) i32 @test_SU_stack() #0 {
  %1 = alloca [10 x %union.SU], align 16
  %2 = tail call ptr @OPENSSL_sk_new_null() #5
  call void @llvm.lifetime.start.p0(i64 40, ptr nonnull %1) #5
  br label %3

3:                                                ; preds = %0, %17
  %indvars.iv = phi i64 [ 0, %0 ], [ %indvars.iv.next, %17 ]
  %4 = trunc nuw nsw i64 %indvars.iv to i32
  %5 = and i32 %4, 1
  %6 = icmp eq i32 %5, 0
  br i1 %6, label %7, label %9

7:                                                ; preds = %3
  %8 = getelementptr inbounds nuw [10 x %union.SU], ptr %1, i64 0, i64 %indvars.iv
  store i32 %4, ptr %8, align 4, !tbaa !33
  br label %13

9:                                                ; preds = %3
  %10 = trunc i64 %indvars.iv to i8
  %11 = add nuw nsw i8 %10, 65
  %12 = getelementptr inbounds nuw [10 x %union.SU], ptr %1, i64 0, i64 %indvars.iv
  store i8 %11, ptr %12, align 4, !tbaa !33
  br label %13

13:                                               ; preds = %9, %7
  %14 = call i32 @OPENSSL_sk_num(ptr noundef %2) #5
  %15 = call i32 @test_int_eq(ptr noundef nonnull @.str.4, i32 noundef 359, ptr noundef nonnull @.str.60, ptr noundef nonnull @.str.8, i32 noundef %14, i32 noundef %4) #5
  %.not22 = icmp eq i32 %15, 0
  br i1 %.not22, label %16, label %17

16:                                               ; preds = %13
  call void (ptr, i32, ptr, ...) @test_info(ptr noundef nonnull @.str.4, i32 noundef 360, ptr noundef nonnull @.str.61, i32 noundef %4) #5
  br label %.loopexit

17:                                               ; preds = %13
  %18 = getelementptr inbounds nuw %union.SU, ptr %1, i64 %indvars.iv
  %19 = call i32 @OPENSSL_sk_push(ptr noundef %2, ptr noundef nonnull %18) #5
  %indvars.iv.next = add nuw nsw i64 %indvars.iv, 1
  %exitcond.not = icmp eq i64 %indvars.iv.next, 10
  br i1 %exitcond.not, label %20, label %3, !llvm.loop !34

20:                                               ; preds = %17
  %21 = call i32 @OPENSSL_sk_num(ptr noundef %2) #5
  %22 = call i32 @test_int_eq(ptr noundef nonnull @.str.4, i32 noundef 365, ptr noundef nonnull @.str.60, ptr noundef nonnull @.str.10, i32 noundef %21, i32 noundef 10) #5
  %.not = icmp eq i32 %22, 0
  br i1 %.not, label %.loopexit, label %.preheader

.preheader:                                       ; preds = %20, %28
  %indvars.iv30 = phi i64 [ %indvars.iv.next31, %28 ], [ 0, %20 ]
  %23 = trunc nuw nsw i64 %indvars.iv30 to i32
  %24 = call ptr @OPENSSL_sk_value(ptr noundef %2, i32 noundef range(i32 -2147483648, 10) %23) #5
  %25 = getelementptr inbounds nuw %union.SU, ptr %1, i64 %indvars.iv30
  %26 = call i32 @test_ptr_eq(ptr noundef nonnull @.str.4, i32 noundef 370, ptr noundef nonnull @.str.62, ptr noundef nonnull @.str.12, ptr noundef %24, ptr noundef nonnull %25) #5
  %.not21 = icmp eq i32 %26, 0
  br i1 %.not21, label %27, label %28

27:                                               ; preds = %.preheader
  call void (ptr, i32, ptr, ...) @test_info(ptr noundef nonnull @.str.4, i32 noundef 371, ptr noundef nonnull @.str.63, i32 noundef %23) #5
  br label %.loopexit

28:                                               ; preds = %.preheader
  %indvars.iv.next31 = add nuw nsw i64 %indvars.iv30, 1
  %exitcond33.not = icmp eq i64 %indvars.iv.next31, 10
  br i1 %exitcond33.not, label %.loopexit, label %.preheader, !llvm.loop !35

.loopexit:                                        ; preds = %28, %20, %27, %16
  %.0 = phi i32 [ 0, %16 ], [ 0, %27 ], [ 0, %20 ], [ 1, %28 ]
  call void @OPENSSL_sk_free(ptr noundef %2) #5
  call void @llvm.lifetime.end.p0(i64 40, ptr nonnull %1) #5
  ret i32 %.0
}